target datalayout = "e-m:e-p270:32:32-p271:32:32-p272:64:64-i64:64-i128:128-f80:128-n8:16:32:64-S128"
target triple = "x86_64-pc-linux-gnu"

%"class.nanogui::Color" = type { %"struct.nanogui::Array" }
%"struct.nanogui::Array" = type { [4 x float] }
%"class.std::__1::basic_string" = type { %"class.std::__1::__compressed_pair.4" }
%"class.std::__1::__compressed_pair.4" = type { %"struct.std::__1::__compressed_pair_elem.5" }
%"struct.std::__1::__compressed_pair_elem.5" = type { %"struct.std::__1::basic_string<char>::__rep" }
%"struct.std::__1::basic_string<char>::__rep" = type { %union.anon }
%union.anon = type { %"struct.std::__1::basic_string<char>::__long" }
%"struct.std::__1::basic_string<char>::__long" = type { %struct.anon.6, i64, ptr }
%struct.anon.6 = type { i64 }
%"struct.std::__1::atomic" = type { %"struct.std::__1::__atomic_base" }
%"struct.std::__1::__atomic_base" = type { %"struct.std::__1::__atomic_base.0" }
%"struct.std::__1::__atomic_base.0" = type { %"struct.std::__1::__cxx_atomic_impl" }
%"struct.std::__1::__cxx_atomic_impl" = type { %"struct.std::__1::__cxx_atomic_base_impl" }
%"struct.std::__1::__cxx_atomic_base_impl" = type { i32 }
%"struct.nanogui::Array.2" = type { [2 x i32] }
%"struct.std::__1::aligned_storage<24>::type" = type { [32 x i8] }
%"class.std::__1::function" = type { %"class.std::__1::__function::__value_func" }
%"class.std::__1::__function::__value_func" = type { %"struct.std::__1::aligned_storage<24>::type", ptr, [8 x i8] }
%"class.std::__1::shared_ptr.24" = type { ptr, ptr }
%"class.tev::ImageViewer" = type <{ %"class.nanogui::Screen", %"class.tev::SharedQueue", i8, i8, [6 x i8], ptr, ptr, ptr, ptr, ptr, i8, [7 x i8], ptr, ptr, ptr, ptr, ptr, ptr, ptr, ptr, %"class.std::__1::shared_ptr", %"class.std::__1::shared_ptr.24", %"class.std::__1::shared_ptr.24", %"class.std::__1::vector.25", ptr, %"class.std::__1::set", ptr, ptr, ptr, %"class.std::__1::chrono::time_point", %"class.std::__1::vector.40", %"class.std::__1::vector.40", ptr, ptr, %"class.std::__1::chrono::time_point", ptr, ptr, ptr, ptr, ptr, %"class.std::__1::basic_string", ptr, %"struct.nanogui::Array.2", i32, [4 x i8], i64, i64, i8, [7 x i8], ptr, i32, [4 x i8] }>
%"class.nanogui::Screen" = type { %"class.nanogui::Widget.base", ptr, ptr, [6 x ptr], i32, %"class.std::__1::vector", %"struct.nanogui::Array.2", float, i32, i32, %"struct.nanogui::Array.2", i8, ptr, double, i8, %"class.nanogui::Color", %"class.std::__1::basic_string", i8, i8, i8, i8, i8, i8, %"class.std::__1::function" }
%"class.nanogui::Widget.base" = type <{ %"class.nanogui::Object.base", [4 x i8], ptr, %"class.nanogui::ref", %"class.nanogui::ref.1", %"struct.nanogui::Array.2", %"struct.nanogui::Array.2", %"struct.nanogui::Array.2", %"class.std::__1::vector", i8, i8, i8, i8, [4 x i8], %"class.std::__1::basic_string", i32, float, i32 }>
%"class.nanogui::Object.base" = type <{ ptr, %"struct.std::__1::atomic" }>
%"class.nanogui::ref" = type { ptr }
%"class.nanogui::ref.1" = type { ptr }
%"class.std::__1::vector" = type { ptr, ptr, %"class.std::__1::__compressed_pair" }
%"class.std::__1::__compressed_pair" = type { %"struct.std::__1::__compressed_pair_elem" }
%"struct.std::__1::__compressed_pair_elem" = type { ptr }
%"class.tev::SharedQueue" = type { %"class.std::__1::deque", %"class.std::__1::mutex", %"class.std::__1::condition_variable" }
%"class.std::__1::deque" = type { %"struct.std::__1::__split_buffer", i64, %"class.std::__1::__compressed_pair.17" }
%"struct.std::__1::__split_buffer" = type { ptr, ptr, ptr, %"class.std::__1::__compressed_pair.11" }
%"class.std::__1::__compressed_pair.11" = type { %"struct.std::__1::__compressed_pair_elem.12" }
%"struct.std::__1::__compressed_pair_elem.12" = type { ptr }
%"class.std::__1::__compressed_pair.17" = type { %"struct.std::__1::__compressed_pair_elem.18" }
%"struct.std::__1::__compressed_pair_elem.18" = type { i64 }
%"class.std::__1::mutex" = type { %union.pthread_mutex_t }
%union.pthread_mutex_t = type { %struct.__pthread_mutex_s }
%struct.__pthread_mutex_s = type { i32, i32, i32, i32, i32, i16, i16, %struct.__pthread_internal_list }
%struct.__pthread_internal_list = type { ptr, ptr }
%"class.std::__1::condition_variable" = type { %union.pthread_cond_t }
%union.pthread_cond_t = type { %struct.__pthread_cond_s }
%struct.__pthread_cond_s = type { %union.__atomic_wide_counter, %union.__atomic_wide_counter, [2 x i32], [2 x i32], i32, i32, [2 x i32] }
%union.__atomic_wide_counter = type { i64 }
%"class.std::__1::shared_ptr" = type { ptr, ptr }
%"class.std::__1::vector.25" = type { ptr, ptr, %"class.std::__1::__compressed_pair.26" }
%"class.std::__1::__compressed_pair.26" = type { %"struct.std::__1::__compressed_pair_elem.27" }
%"struct.std::__1::__compressed_pair_elem.27" = type { ptr }
%"class.std::__1::set" = type { %"class.std::__1::__tree" }
%"class.std::__1::__tree" = type { ptr, %"class.std::__1::__compressed_pair.32", %"class.std::__1::__compressed_pair.38" }
%"class.std::__1::__compressed_pair.32" = type { %"struct.std::__1::__compressed_pair_elem.33" }
%"struct.std::__1::__compressed_pair_elem.33" = type { %"class.std::__1::__tree_end_node" }
%"class.std::__1::__tree_end_node" = type { ptr }
%"class.std::__1::__compressed_pair.38" = type { %"struct.std::__1::__compressed_pair_elem.18" }
%"class.std::__1::vector.40" = type { ptr, ptr, %"class.std::__1::__compressed_pair.41" }
%"class.std::__1::__compressed_pair.41" = type { %"struct.std::__1::__compressed_pair_elem.42" }
%"struct.std::__1::__compressed_pair_elem.42" = type { ptr }
%"class.std::__1::chrono::time_point" = type { %"class.std::__1::chrono::duration" }
%"class.std::__1::chrono::duration" = type { i64 }

; Function Attrs: mustprogress uwtable
define dso_local void @_ZN3tev11ImageViewer10resetImageEv(ptr noundef nonnull align 16 dereferenceable(972) %0) #4 align 2 {
  %2 = alloca ptr, align 8
  store ptr %0, ptr %2, align 8
  %3 = load ptr, ptr %2, align 8
  call void @_ZN3tev11ImageViewer11setExposureEf(ptr noundef nonnull align 16 dereferenceable(972) %3, float noundef 0.000000e+00)
  call void @_ZN3tev11ImageViewer9setOffsetEf(ptr noundef nonnull align 16 dereferenceable(972) %3, float noundef 0.000000e+00)
  call void @_ZN3tev11ImageViewer8setGammaEf(ptr noundef nonnull align 16 dereferenceable(972) %3, float noundef 0x40019999A0000000)
  %4 = getelementptr inbounds %"class.tev::ImageViewer", ptr %3, i32 0, i32 38
  %5 = load ptr, ptr %4, align 8
  call void @_ZN3tev11ImageCanvas14resetTransformEv(ptr noundef nonnull align 8 dereferenceable(376) %5)
  ret void
}