; Function Attrs: mustprogress uwtable
define dso_local void @_ZN3tev11ImageViewer10resetImageEv(ptr nocapture noundef nonnull readonly align 16 dereferenceable(972) %0) local_unnamed_addr #7 align 2 {
  tail call void @_ZN3tev11ImageViewer11setExposureEf(ptr noundef nonnull align 16 dereferenceable(972) %0, float noundef 0.000000e+00)
  tail call void @_ZN3tev11ImageViewer9setOffsetEf(ptr noundef nonnull align 16 dereferenceable(972) %0, float noundef 0.000000e+00)
  tail call void @_ZN3tev11ImageViewer8setGammaEf(ptr noundef nonnull align 16 dereferenceable(972) %0, float noundef 0x40019999A0000000)
  %2 = getelementptr inbounds i8, ptr %0, i64 872
  %3 = load ptr, ptr %2, align 8
  tail call void @_ZN3tev11ImageCanvas14resetTransformEv(ptr noundef nonnull align 8 dereferenceable(376) %3)
  ret void
}